; Function Attrs: mustprogress nofree norecurse nosync nounwind willreturn memory(readwrite, inaccessiblemem: none) uwtable
define range(i32 -2, 1) i32 @inflateReset(ptr noundef %0) local_unnamed_addr #0 {
  %2 = icmp eq ptr %0, null
  br i1 %2, label %32, label %3

3:                                                ; preds = %1
  %4 = getelementptr inbounds nuw i8, ptr %0, i64 56
  %5 = load ptr, ptr %4, align 8, !tbaa !3
  %6 = icmp eq ptr %5, null
  br i1 %6, label %32, label %7

7:                                                ; preds = %3
  %8 = getelementptr inbounds nuw i8, ptr %5, i64 52
  store i32 0, ptr %8, align 4, !tbaa !30
  %9 = getelementptr inbounds nuw i8, ptr %5, i64 56
  store i32 0, ptr %9, align 8, !tbaa !31
  %10 = getelementptr inbounds nuw i8, ptr %5, i64 60
  store i32 0, ptr %10, align 4, !tbaa !32
  %11 = getelementptr inbounds nuw i8, ptr %5, i64 32
  store i64 0, ptr %11, align 8, !tbaa !12
  %12 = getelementptr inbounds nuw i8, ptr %0, i64 40
  %13 = getelementptr inbounds nuw i8, ptr %0, i64 16
  store i64 0, ptr %13, align 8, !tbaa !15
  %14 = getelementptr inbounds nuw i8, ptr %5, i64 8
  tail call void @llvm.memset.p0.i64(ptr noundef nonnull align 8 dereferenceable(16) %12, i8 0, i64 16, i1 false)
  %15 = load i32, ptr %14, align 8, !tbaa !16
  %.not.i = icmp eq i32 %15, 0
  br i1 %.not.i, label %inflateResetKeep.exit, label %16

16:                                               ; preds = %7
  %17 = and i32 %15, 1
  %18 = zext nneg i32 %17 to i64
  %19 = getelementptr inbounds nuw i8, ptr %0, i64 96
  store i64 %18, ptr %19, align 8, !tbaa !17
  br label %inflateResetKeep.exit

inflateResetKeep.exit:                            ; preds = %7, %16
  store i32 0, ptr %5, align 8, !tbaa !18
  %20 = getelementptr inbounds nuw i8, ptr %5, i64 4
  store i32 0, ptr %20, align 4, !tbaa !19
  %21 = getelementptr inbounds nuw i8, ptr %5, i64 12
  store i32 0, ptr %21, align 4, !tbaa !20
  %22 = getelementptr inbounds nuw i8, ptr %5, i64 20
  store i32 32768, ptr %22, align 4, !tbaa !21
  %23 = getelementptr inbounds nuw i8, ptr %5, i64 40
  store ptr null, ptr %23, align 8, !tbaa !22
  %24 = getelementptr inbounds nuw i8, ptr %5, i64 72
  store i64 0, ptr %24, align 8, !tbaa !23
  %25 = getelementptr inbounds nuw i8, ptr %5, i64 80
  store i32 0, ptr %25, align 8, !tbaa !24
  %26 = getelementptr inbounds nuw i8, ptr %5, i64 1360
  %27 = getelementptr inbounds nuw i8, ptr %5, i64 136
  store ptr %26, ptr %27, align 8, !tbaa !25
  %28 = getelementptr inbounds nuw i8, ptr %5, i64 104
  store ptr %26, ptr %28, align 8, !tbaa !26
  %29 = getelementptr inbounds nuw i8, ptr %5, i64 96
  store ptr %26, ptr %29, align 8, !tbaa !27
  %30 = getelementptr inbounds nuw i8, ptr %5, i64 7136
  store i32 1, ptr %30, align 8, !tbaa !28
  %31 = getelementptr inbounds nuw i8, ptr %5, i64 7140
  store i32 -1, ptr %31, align 4, !tbaa !29
  br label %32

32:                                               ; preds = %1, %3, %inflateResetKeep.exit
  %.0 = phi i32 [ 0, %inflateResetKeep.exit ], [ -2, %3 ], [ -2, %1 ]
  ret i32 %.0
}